target datalayout = "e-m:e-p270:32:32-p271:32:32-p272:64:64-i64:64-i128:128-f80:128-n8:16:32:64-S128"
target triple = "x86_64-pc-linux-gnu"

%struct.pointf_s = type { double, double }
%struct.Agobj_s = type { %struct.Agtag_s, ptr }
%struct.Agtag_s = type { i32, i64 }
%struct.Agnodeinfo_t = type { %struct.Agrec_s, ptr, ptr, %struct.pointf_s, double, double, %struct.boxf, double, double, double, double, double, ptr, ptr, ptr, i8, i8, i8, i8, i32, i32, i32, ptr, double, i8, i8, ptr, ptr, i8, i64, i8, i8, i8, ptr, ptr, %struct.elist, %struct.elist, %struct.elist, %struct.elist, %struct.elist, ptr, i32, ptr, i32, i32, double, %struct.elist, %struct.elist, %struct.elist, %struct.elist, ptr, i32, i32, i32, [1 x double] }
%struct.Agrec_s = type { ptr, ptr }
%struct.boxf = type { %struct.pointf_s, %struct.pointf_s }
%struct.elist = type { ptr, i64 }
%struct.expand_t = type { double, double, i8 }
%struct.ipsep_options = type { i32, double, i32, %struct.pointf_s, ptr, %struct.cluster_data }
%struct.cluster_data = type { i32, i32, ptr, ptr, i32, ptr, ptr }

@stderr = external global ptr, align 8
@.str.11 = private unnamed_addr constant [58 x i8] c"integer overflow when trying to allocate %zu * %zu bytes\0A\00", align 1
@.str.12 = private unnamed_addr constant [49 x i8] c"out of memory when trying to allocate %zu bytes\0A\00", align 1

; Function Attrs: inlinehint nounwind uwtable
define internal ptr @gv_calloc(i64 noundef %0, i64 noundef %1) #2 {
  %3 = alloca i64, align 8
  %4 = alloca i64, align 8
  %5 = alloca ptr, align 8
  store i64 %0, ptr %3, align 8, !tbaa !46
  store i64 %1, ptr %4, align 8, !tbaa !46
  %6 = load i64, ptr %3, align 8, !tbaa !46
  %7 = icmp ugt i64 %6, 0
  br i1 %7, label %8, label %18

8:                                                ; preds = %2
  %9 = load i64, ptr %3, align 8, !tbaa !46
  %10 = udiv i64 -1, %9
  %11 = load i64, ptr %4, align 8, !tbaa !46
  %12 = icmp ult i64 %10, %11
  br i1 %12, label %13, label %18

13:                                               ; preds = %8
  %14 = load ptr, ptr @stderr, align 8, !tbaa !47
  %15 = load i64, ptr %3, align 8, !tbaa !46
  %16 = load i64, ptr %4, align 8, !tbaa !46
  %17 = call i32 (ptr, ptr, ...) @fprintf(ptr noundef %14, ptr noundef @.str.11, i64 noundef %15, i64 noundef %16) #13
  call void @graphviz_exit(i32 noundef 1) #14
  unreachable

18:                                               ; preds = %8, %2
  call void @llvm.lifetime.start.p0(i64 8, ptr %5) #13
  %19 = load i64, ptr %3, align 8, !tbaa !46
  %20 = load i64, ptr %4, align 8, !tbaa !46
  %21 = call noalias ptr @calloc(i64 noundef %19, i64 noundef %20) #15
  store ptr %21, ptr %5, align 8, !tbaa !49
  %22 = load i64, ptr %3, align 8, !tbaa !46
  %23 = icmp ugt i64 %22, 0
  br i1 %23, label %24, label %36

24:                                               ; preds = %18
  %25 = load i64, ptr %4, align 8, !tbaa !46
  %26 = icmp ugt i64 %25, 0
  br i1 %26, label %27, label %36

27:                                               ; preds = %24
  %28 = load ptr, ptr %5, align 8, !tbaa !49
  %29 = icmp eq ptr %28, null
  br i1 %29, label %30, label %36

30:                                               ; preds = %27
  %31 = load ptr, ptr @stderr, align 8, !tbaa !47
  %32 = load i64, ptr %3, align 8, !tbaa !46
  %33 = load i64, ptr %4, align 8, !tbaa !46
  %34 = mul i64 %32, %33
  %35 = call i32 (ptr, ptr, ...) @fprintf(ptr noundef %31, ptr noundef @.str.12, i64 noundef %34) #13
  call void @graphviz_exit(i32 noundef 1) #14
  unreachable

36:                                               ; preds = %27, %24, %18
  %37 = load ptr, ptr %5, align 8, !tbaa !49
  call void @llvm.lifetime.end.p0(i64 8, ptr %5) #13
  ret ptr %37
}

; Function Attrs: nounwind uwtable
define internal i32 @vpscAdjust(ptr noundef %0) #0 {
  %2 = alloca ptr, align 8
  %3 = alloca i32, align 4
  %4 = alloca %struct.ipsep_options, align 8
  %5 = alloca ptr, align 8
  %6 = alloca [2 x ptr], align 16
  %7 = alloca ptr, align 8
  %8 = alloca i64, align 8
  %9 = alloca i64, align 8
  %10 = alloca ptr, align 8
  %11 = alloca i32, align 4
  %12 = alloca i64, align 8
  %13 = alloca %struct.cluster_data, align 8
  %14 = alloca %struct.expand_t, align 8
  %15 = alloca ptr, align 8
  %16 = alloca i64, align 8
  store ptr %0, ptr %2, align 8, !tbaa !3
  call void @llvm.lifetime.start.p0(i64 4, ptr %3) #13
  %17 = load ptr, ptr %2, align 8, !tbaa !3
  %18 = call i32 @agnnodes(ptr noundef %17)
  store i32 %18, ptr %3, align 4, !tbaa !16
  call void @llvm.lifetime.start.p0(i64 96, ptr %4) #13
  call void @llvm.lifetime.start.p0(i64 8, ptr %5) #13
  %19 = load i32, ptr %3, align 4, !tbaa !16
  %20 = sext i32 %19 to i64
  %21 = call ptr @gv_calloc(i64 noundef %20, i64 noundef 16)
  store ptr %21, ptr %5, align 8, !tbaa !97
  call void @llvm.lifetime.start.p0(i64 16, ptr %6) #13
  call void @llvm.lifetime.start.p0(i64 8, ptr %7) #13
  %22 = load i32, ptr %3, align 4, !tbaa !16
  %23 = mul nsw i32 2, %22
  %24 = sext i32 %23 to i64
  %25 = call ptr @gv_calloc(i64 noundef %24, i64 noundef 4)
  store ptr %25, ptr %7, align 8, !tbaa !99
  call void @llvm.lifetime.start.p0(i64 8, ptr %8) #13
  store i64 0, ptr %8, align 8, !tbaa !46
  br label %26

26:                                               ; preds = %39, %1
  %27 = load i64, ptr %8, align 8, !tbaa !46
  %28 = icmp ult i64 %27, 2
  br i1 %28, label %30, label %29

29:                                               ; preds = %26
  call void @llvm.lifetime.end.p0(i64 8, ptr %8) #13
  br label %42

30:                                               ; preds = %26
  %31 = load ptr, ptr %7, align 8, !tbaa !99
  %32 = load i64, ptr %8, align 8, !tbaa !46
  %33 = load i32, ptr %3, align 4, !tbaa !16
  %34 = sext i32 %33 to i64
  %35 = mul i64 %32, %34
  %36 = getelementptr inbounds nuw float, ptr %31, i64 %35
  %37 = load i64, ptr %8, align 8, !tbaa !46
  %38 = getelementptr inbounds nuw [2 x ptr], ptr %6, i64 0, i64 %37
  store ptr %36, ptr %38, align 8, !tbaa !99
  br label %39

39:                                               ; preds = %30
  %40 = load i64, ptr %8, align 8, !tbaa !46
  %41 = add i64 %40, 1
  store i64 %41, ptr %8, align 8, !tbaa !46
  br label %26, !llvm.loop !101

42:                                               ; preds = %29
  call void @llvm.lifetime.start.p0(i64 8, ptr %9) #13
  store i64 0, ptr %9, align 8, !tbaa !46
  call void @llvm.lifetime.start.p0(i64 8, ptr %10) #13
  %43 = load ptr, ptr %2, align 8, !tbaa !3
  %44 = call ptr @agfstnode(ptr noundef %43)
  store ptr %44, ptr %10, align 8, !tbaa !18
  br label %45

45:                                               ; preds = %93, %42
  %46 = load ptr, ptr %10, align 8, !tbaa !18
  %47 = icmp ne ptr %46, null
  br i1 %47, label %49, label %48

48:                                               ; preds = %45
  store i32 5, ptr %11, align 4
  call void @llvm.lifetime.end.p0(i64 8, ptr %10) #13
  br label %97

49:                                               ; preds = %45
  call void @llvm.lifetime.start.p0(i64 8, ptr %12) #13
  store i64 0, ptr %12, align 8, !tbaa !46
  br label %50

50:                                               ; preds = %69, %49
  %51 = load i64, ptr %12, align 8, !tbaa !46
  %52 = icmp ult i64 %51, 2
  br i1 %52, label %54, label %53

53:                                               ; preds = %50
  store i32 8, ptr %11, align 4
  call void @llvm.lifetime.end.p0(i64 8, ptr %12) #13
  br label %72

54:                                               ; preds = %50
  %55 = load ptr, ptr %10, align 8, !tbaa !18
  %56 = getelementptr inbounds nuw %struct.Agobj_s, ptr %55, i32 0, i32 1
  %57 = load ptr, ptr %56, align 8, !tbaa !20
  %58 = getelementptr inbounds nuw %struct.Agnodeinfo_t, ptr %57, i32 0, i32 22
  %59 = load ptr, ptr %58, align 8, !tbaa !63
  %60 = load i64, ptr %12, align 8, !tbaa !46
  %61 = getelementptr inbounds nuw double, ptr %59, i64 %60
  %62 = load double, ptr %61, align 8, !tbaa !40
  %63 = fptrunc double %62 to float
  %64 = load i64, ptr %12, align 8, !tbaa !46
  %65 = getelementptr inbounds nuw [2 x ptr], ptr %6, i64 0, i64 %64
  %66 = load ptr, ptr %65, align 8, !tbaa !99
  %67 = load i64, ptr %9, align 8, !tbaa !46
  %68 = getelementptr inbounds nuw float, ptr %66, i64 %67
  store float %63, ptr %68, align 4, !tbaa !102
  br label %69

69:                                               ; preds = %54
  %70 = load i64, ptr %12, align 8, !tbaa !46
  %71 = add i64 %70, 1
  store i64 %71, ptr %12, align 8, !tbaa !46
  br label %50, !llvm.loop !104

72:                                               ; preds = %53
  %73 = load ptr, ptr %10, align 8, !tbaa !18
  %74 = getelementptr inbounds nuw %struct.Agobj_s, ptr %73, i32 0, i32 1
  %75 = load ptr, ptr %74, align 8, !tbaa !20
  %76 = getelementptr inbounds nuw %struct.Agnodeinfo_t, ptr %75, i32 0, i32 4
  %77 = load double, ptr %76, align 8, !tbaa !38
  %78 = load ptr, ptr %5, align 8, !tbaa !97
  %79 = load i64, ptr %9, align 8, !tbaa !46
  %80 = getelementptr inbounds nuw %struct.pointf_s, ptr %78, i64 %79
  %81 = getelementptr inbounds nuw %struct.pointf_s, ptr %80, i32 0, i32 0
  store double %77, ptr %81, align 8, !tbaa !39
  %82 = load ptr, ptr %10, align 8, !tbaa !18
  %83 = getelementptr inbounds nuw %struct.Agobj_s, ptr %82, i32 0, i32 1
  %84 = load ptr, ptr %83, align 8, !tbaa !20
  %85 = getelementptr inbounds nuw %struct.Agnodeinfo_t, ptr %84, i32 0, i32 5
  %86 = load double, ptr %85, align 8, !tbaa !41
  %87 = load ptr, ptr %5, align 8, !tbaa !97
  %88 = load i64, ptr %9, align 8, !tbaa !46
  %89 = getelementptr inbounds nuw %struct.pointf_s, ptr %87, i64 %88
  %90 = getelementptr inbounds nuw %struct.pointf_s, ptr %89, i32 0, i32 1
  store double %86, ptr %90, align 8, !tbaa !42
  %91 = load i64, ptr %9, align 8, !tbaa !46
  %92 = add i64 %91, 1
  store i64 %92, ptr %9, align 8, !tbaa !46
  br label %93

93:                                               ; preds = %72
  %94 = load ptr, ptr %2, align 8, !tbaa !3
  %95 = load ptr, ptr %10, align 8, !tbaa !18
  %96 = call ptr @agnxtnode(ptr noundef %94, ptr noundef %95)
  store ptr %96, ptr %10, align 8, !tbaa !18
  br label %45, !llvm.loop !105

97:                                               ; preds = %48
  %98 = getelementptr inbounds nuw %struct.ipsep_options, ptr %4, i32 0, i32 0
  store i32 0, ptr %98, align 8, !tbaa !106
  %99 = getelementptr inbounds nuw %struct.ipsep_options, ptr %4, i32 0, i32 1
  store double 0.000000e+00, ptr %99, align 8, !tbaa !109
  %100 = getelementptr inbounds nuw %struct.ipsep_options, ptr %4, i32 0, i32 2
  store i32 2, ptr %100, align 8, !tbaa !110
  %101 = getelementptr inbounds nuw %struct.ipsep_options, ptr %4, i32 0, i32 5
  call void @llvm.memset.p0.i64(ptr align 8 %13, i8 0, i64 48, i1 false)
  call void @llvm.memcpy.p0.p0.i64(ptr align 8 %101, ptr align 8 %13, i64 48, i1 false), !tbaa.struct !111
  call void @llvm.lifetime.start.p0(i64 24, ptr %14) #13
  %102 = load ptr, ptr %2, align 8, !tbaa !3
  call void @sepFactor(ptr dead_on_unwind writable sret(%struct.expand_t) align 8 %14, ptr noundef %102)
  %103 = getelementptr inbounds nuw %struct.expand_t, ptr %14, i32 0, i32 2
  %104 = load i8, ptr %103, align 8, !tbaa !87, !range !78, !noundef !79
  %105 = trunc i8 %104 to i1
  br i1 %105, label %106, label %119

106:                                              ; preds = %97
  %107 = getelementptr inbounds nuw %struct.expand_t, ptr %14, i32 0, i32 0
  %108 = load double, ptr %107, align 8, !tbaa !89
  %109 = fdiv double %108, 7.200000e+01
  %110 = fmul double 2.000000e+00, %109
  %111 = getelementptr inbounds nuw %struct.ipsep_options, ptr %4, i32 0, i32 3
  %112 = getelementptr inbounds nuw %struct.pointf_s, ptr %111, i32 0, i32 0
  store double %110, ptr %112, align 8, !tbaa !112
  %113 = getelementptr inbounds nuw %struct.expand_t, ptr %14, i32 0, i32 1
  %114 = load double, ptr %113, align 8, !tbaa !90
  %115 = fdiv double %114, 7.200000e+01
  %116 = fmul double 2.000000e+00, %115
  %117 = getelementptr inbounds nuw %struct.ipsep_options, ptr %4, i32 0, i32 3
  %118 = getelementptr inbounds nuw %struct.pointf_s, ptr %117, i32 0, i32 1
  store double %116, ptr %118, align 8, !tbaa !113
  br label %124

119:                                              ; preds = %97
  %120 = getelementptr inbounds nuw %struct.ipsep_options, ptr %4, i32 0, i32 3
  %121 = getelementptr inbounds nuw %struct.pointf_s, ptr %120, i32 0, i32 1
  store double 0x3FBC71C71C71C71C, ptr %121, align 8, !tbaa !113
  %122 = getelementptr inbounds nuw %struct.ipsep_options, ptr %4, i32 0, i32 3
  %123 = getelementptr inbounds nuw %struct.pointf_s, ptr %122, i32 0, i32 0
  store double 0x3FBC71C71C71C71C, ptr %123, align 8, !tbaa !112
  br label %124

124:                                              ; preds = %119, %106
  %125 = load ptr, ptr %5, align 8, !tbaa !97
  %126 = getelementptr inbounds nuw %struct.ipsep_options, ptr %4, i32 0, i32 4
  store ptr %125, ptr %126, align 8, !tbaa !114
  %127 = load i32, ptr %3, align 4, !tbaa !16
  %128 = getelementptr inbounds [2 x ptr], ptr %6, i64 0, i64 0
  call void @removeoverlaps(i32 noundef %127, ptr noundef %128, ptr noundef %4)
  store i64 0, ptr %9, align 8, !tbaa !46
  call void @llvm.lifetime.start.p0(i64 8, ptr %15) #13
  %129 = load ptr, ptr %2, align 8, !tbaa !3
  %130 = call ptr @agfstnode(ptr noundef %129)
  store ptr %130, ptr %15, align 8, !tbaa !18
  br label %131

131:                                              ; preds = %161, %124
  %132 = load ptr, ptr %15, align 8, !tbaa !18
  %133 = icmp ne ptr %132, null
  br i1 %133, label %135, label %134

134:                                              ; preds = %131
  store i32 11, ptr %11, align 4
  call void @llvm.lifetime.end.p0(i64 8, ptr %15) #13
  br label %165

135:                                              ; preds = %131
  call void @llvm.lifetime.start.p0(i64 8, ptr %16) #13
  store i64 0, ptr %16, align 8, !tbaa !46
  br label %136

136:                                              ; preds = %155, %135
  %137 = load i64, ptr %16, align 8, !tbaa !46
  %138 = icmp ult i64 %137, 2
  br i1 %138, label %140, label %139

139:                                              ; preds = %136
  store i32 14, ptr %11, align 4
  call void @llvm.lifetime.end.p0(i64 8, ptr %16) #13
  br label %158

140:                                              ; preds = %136
  %141 = load i64, ptr %16, align 8, !tbaa !46
  %142 = getelementptr inbounds nuw [2 x ptr], ptr %6, i64 0, i64 %141
  %143 = load ptr, ptr %142, align 8, !tbaa !99
  %144 = load i64, ptr %9, align 8, !tbaa !46
  %145 = getelementptr inbounds nuw float, ptr %143, i64 %144
  %146 = load float, ptr %145, align 4, !tbaa !102
  %147 = fpext float %146 to double
  %148 = load ptr, ptr %15, align 8, !tbaa !18
  %149 = getelementptr inbounds nuw %struct.Agobj_s, ptr %148, i32 0, i32 1
  %150 = load ptr, ptr %149, align 8, !tbaa !20
  %151 = getelementptr inbounds nuw %struct.Agnodeinfo_t, ptr %150, i32 0, i32 22
  %152 = load ptr, ptr %151, align 8, !tbaa !63
  %153 = load i64, ptr %16, align 8, !tbaa !46
  %154 = getelementptr inbounds nuw double, ptr %152, i64 %153
  store double %147, ptr %154, align 8, !tbaa !40
  br label %155

155:                                              ; preds = %140
  %156 = load i64, ptr %16, align 8, !tbaa !46
  %157 = add i64 %156, 1
  store i64 %157, ptr %16, align 8, !tbaa !46
  br label %136, !llvm.loop !115

158:                                              ; preds = %139
  %159 = load i64, ptr %9, align 8, !tbaa !46
  %160 = add i64 %159, 1
  store i64 %160, ptr %9, align 8, !tbaa !46
  br label %161

161:                                              ; preds = %158
  %162 = load ptr, ptr %2, align 8, !tbaa !3
  %163 = load ptr, ptr %15, align 8, !tbaa !18
  %164 = call ptr @agnxtnode(ptr noundef %162, ptr noundef %163)
  store ptr %164, ptr %15, align 8, !tbaa !18
  br label %131, !llvm.loop !116

165:                                              ; preds = %134
  %166 = load ptr, ptr %7, align 8, !tbaa !99
  call void @free(ptr noundef %166) #13
  %167 = load ptr, ptr %5, align 8, !tbaa !97
  call void @free(ptr noundef %167) #13
  store i32 1, ptr %11, align 4
  call void @llvm.lifetime.end.p0(i64 24, ptr %14) #13
  call void @llvm.lifetime.end.p0(i64 8, ptr %9) #13
  call void @llvm.lifetime.end.p0(i64 8, ptr %7) #13
  call void @llvm.lifetime.end.p0(i64 16, ptr %6) #13
  call void @llvm.lifetime.end.p0(i64 8, ptr %5) #13
  call void @llvm.lifetime.end.p0(i64 96, ptr %4) #13
  call void @llvm.lifetime.end.p0(i64 4, ptr %3) #13
  ret i32 0
}