; Function Attrs: nounwind uwtable
define internal fastcc void @vpscAdjust(ptr noundef %0) unnamed_addr #0 {
  %2 = alloca %struct.ipsep_options, align 8
  %3 = alloca [2 x ptr], align 16
  %4 = alloca %struct.expand_t, align 8
  %5 = tail call i32 @agnnodes(ptr noundef %0) #20
  call void @llvm.lifetime.start.p0(i64 96, ptr nonnull %2) #20
  %6 = sext i32 %5 to i64
  %.not.i = icmp eq i32 %5, 0
  br i1 %.not.i, label %.thread.i50, label %7

7:                                                ; preds = %1
  %mul.ov.i = icmp slt i32 %5, 0
  br i1 %mul.ov.i, label %8, label %11

8:                                                ; preds = %7
  %9 = load ptr, ptr @stderr, align 8, !tbaa !7
  %10 = tail call i32 (ptr, ptr, ...) @fprintf(ptr noundef %9, ptr noundef nonnull @.str.11, i64 noundef %6, i64 noundef 16) #22
  tail call fastcc void @graphviz_exit() #23
  unreachable

11:                                               ; preds = %7
  %12 = tail call noalias ptr @calloc(i64 noundef %6, i64 noundef 16) #21
  %13 = icmp eq ptr %12, null
  br i1 %13, label %14, label %20

14:                                               ; preds = %11
  %15 = load ptr, ptr @stderr, align 8, !tbaa !7
  %16 = shl nuw nsw i64 %6, 4
  %17 = tail call i32 (ptr, ptr, ...) @fprintf(ptr noundef %15, ptr noundef nonnull @.str.12, i64 noundef %16) #22
  tail call fastcc void @graphviz_exit() #23
  unreachable

.thread.i50:                                      ; preds = %1
  %18 = tail call noalias ptr @calloc(i64 noundef 0, i64 noundef 16) #21
  call void @llvm.lifetime.start.p0(i64 16, ptr nonnull %3) #20
  %19 = tail call noalias ptr @calloc(i64 noundef 0, i64 noundef 4) #21
  br label %gv_calloc.exit51

20:                                               ; preds = %11
  call void @llvm.lifetime.start.p0(i64 16, ptr nonnull %3) #20
  %21 = shl nuw nsw i32 %5, 1
  %22 = zext nneg i32 %21 to i64
  %23 = tail call noalias ptr @calloc(i64 noundef %22, i64 noundef 4) #21
  %24 = icmp eq ptr %23, null
  br i1 %24, label %25, label %gv_calloc.exit51

25:                                               ; preds = %20
  %26 = load ptr, ptr @stderr, align 8, !tbaa !7
  %27 = shl nuw nsw i64 %22, 2
  %28 = tail call i32 (ptr, ptr, ...) @fprintf(ptr noundef %26, ptr noundef nonnull @.str.12, i64 noundef %27) #22
  tail call fastcc void @graphviz_exit() #23
  unreachable

gv_calloc.exit51:                                 ; preds = %.thread.i50, %20
  %29 = phi ptr [ %18, %.thread.i50 ], [ %12, %20 ]
  %30 = phi ptr [ %19, %.thread.i50 ], [ %23, %20 ]
  store ptr %30, ptr %3, align 16, !tbaa !129
  %31 = getelementptr inbounds nuw float, ptr %30, i64 %6
  %32 = getelementptr inbounds nuw i8, ptr %3, i64 8
  store ptr %31, ptr %32, align 8, !tbaa !129
  %33 = tail call ptr @agfstnode(ptr noundef %0) #20
  %.not55 = icmp eq ptr %33, null
  br i1 %.not55, label %._crit_edge, label %.preheader52.preheader

.preheader52.preheader:                           ; preds = %gv_calloc.exit51
  %34 = load ptr, ptr %3, align 16, !tbaa !129
  %35 = getelementptr inbounds nuw i8, ptr %3, i64 8
  %36 = load ptr, ptr %35, align 8, !tbaa !129
  br label %.preheader52

.preheader52:                                     ; preds = %.preheader52.preheader, %.preheader52
  %.04357 = phi ptr [ %55, %.preheader52 ], [ %33, %.preheader52.preheader ]
  %.04456 = phi i64 [ %54, %.preheader52 ], [ 0, %.preheader52.preheader ]
  %37 = getelementptr inbounds nuw i8, ptr %.04357, i64 16
  %38 = load ptr, ptr %37, align 8, !tbaa !10
  %39 = getelementptr inbounds nuw i8, ptr %38, i64 176
  %40 = load ptr, ptr %39, align 8, !tbaa !52
  %41 = load double, ptr %40, align 8, !tbaa !33
  %42 = fptrunc double %41 to float
  %43 = getelementptr inbounds nuw float, ptr %34, i64 %.04456
  store float %42, ptr %43, align 4, !tbaa !131
  %44 = getelementptr inbounds nuw i8, ptr %40, i64 8
  %45 = load double, ptr %44, align 8, !tbaa !33
  %46 = fptrunc double %45 to float
  %47 = getelementptr inbounds nuw float, ptr %36, i64 %.04456
  store float %46, ptr %47, align 4, !tbaa !131
  %48 = getelementptr inbounds nuw i8, ptr %38, i64 48
  %49 = load double, ptr %48, align 8, !tbaa !32
  %50 = getelementptr inbounds nuw %struct.pointf_s, ptr %29, i64 %.04456
  store double %49, ptr %50, align 8, !tbaa !65
  %51 = getelementptr inbounds nuw i8, ptr %38, i64 56
  %52 = load double, ptr %51, align 8, !tbaa !34
  %53 = getelementptr inbounds nuw i8, ptr %50, i64 8
  store double %52, ptr %53, align 8, !tbaa !66
  %54 = add i64 %.04456, 1
  %55 = tail call ptr @agnxtnode(ptr noundef %0, ptr noundef nonnull %.04357) #20
  %.not = icmp eq ptr %55, null
  br i1 %.not, label %._crit_edge, label %.preheader52, !llvm.loop !133

._crit_edge:                                      ; preds = %.preheader52, %gv_calloc.exit51
  store i32 0, ptr %2, align 8, !tbaa !134
  %56 = getelementptr inbounds nuw i8, ptr %2, i64 8
  store double 0.000000e+00, ptr %56, align 8, !tbaa !138
  %57 = getelementptr inbounds nuw i8, ptr %2, i64 16
  store i32 2, ptr %57, align 8, !tbaa !139
  %58 = getelementptr inbounds nuw i8, ptr %2, i64 48
  call void @llvm.memset.p0.i64(ptr noundef nonnull align 8 dereferenceable(48) %58, i8 0, i64 48, i1 false)
  call void @llvm.lifetime.start.p0(i64 24, ptr nonnull %4) #20
  call void @sepFactor(ptr dead_on_unwind nonnull writable sret(%struct.expand_t) align 8 %4, ptr noundef %0)
  %59 = getelementptr inbounds nuw i8, ptr %4, i64 16
  %60 = load i8, ptr %59, align 8, !tbaa !70, !range !72, !noundef !73
  %61 = trunc nuw i8 %60 to i1
  br i1 %61, label %62, label %70

62:                                               ; preds = %._crit_edge
  %63 = load double, ptr %4, align 8, !tbaa !74
  %64 = fdiv double %63, 7.200000e+01
  %65 = fmul double %64, 2.000000e+00
  %66 = getelementptr inbounds nuw i8, ptr %4, i64 8
  %67 = load double, ptr %66, align 8, !tbaa !75
  %68 = fdiv double %67, 7.200000e+01
  %69 = fmul double %68, 2.000000e+00
  br label %70

70:                                               ; preds = %._crit_edge, %62
  %.sink63 = phi double [ %65, %62 ], [ 0x3FBC71C71C71C71C, %._crit_edge ]
  %.sink = phi double [ %69, %62 ], [ 0x3FBC71C71C71C71C, %._crit_edge ]
  %71 = getelementptr inbounds nuw i8, ptr %2, i64 24
  store double %.sink63, ptr %71, align 8, !tbaa !140
  %72 = getelementptr inbounds nuw i8, ptr %2, i64 32
  store double %.sink, ptr %72, align 8, !tbaa !141
  %73 = getelementptr inbounds nuw i8, ptr %2, i64 40
  store ptr %29, ptr %73, align 8, !tbaa !142
  call void @removeoverlaps(i32 noundef %5, ptr noundef nonnull %3, ptr noundef nonnull %2) #20
  %74 = call ptr @agfstnode(ptr noundef %0) #20
  %.not4659 = icmp eq ptr %74, null
  br i1 %.not4659, label %._crit_edge62, label %.preheader.preheader

.preheader.preheader:                             ; preds = %70
  %75 = getelementptr inbounds nuw i8, ptr %3, i64 8
  br label %.preheader

.preheader:                                       ; preds = %.preheader.preheader, %.preheader
  %.04161 = phi ptr [ %90, %.preheader ], [ %74, %.preheader.preheader ]
  %.160 = phi i64 [ %89, %.preheader ], [ 0, %.preheader.preheader ]
  %76 = getelementptr inbounds nuw i8, ptr %.04161, i64 16
  %77 = load ptr, ptr %76, align 8, !tbaa !10
  %78 = getelementptr inbounds nuw i8, ptr %77, i64 176
  %79 = load ptr, ptr %78, align 8, !tbaa !52
  %80 = load ptr, ptr %3, align 16, !tbaa !129
  %81 = getelementptr inbounds nuw float, ptr %80, i64 %.160
  %82 = load float, ptr %81, align 4, !tbaa !131
  %83 = fpext float %82 to double
  store double %83, ptr %79, align 8, !tbaa !33
  %84 = load ptr, ptr %75, align 8, !tbaa !129
  %85 = getelementptr inbounds nuw float, ptr %84, i64 %.160
  %86 = load float, ptr %85, align 4, !tbaa !131
  %87 = fpext float %86 to double
  %88 = getelementptr inbounds nuw i8, ptr %79, i64 8
  store double %87, ptr %88, align 8, !tbaa !33
  %89 = add i64 %.160, 1
  %90 = call ptr @agnxtnode(ptr noundef %0, ptr noundef nonnull %.04161) #20
  %.not46 = icmp eq ptr %90, null
  br i1 %.not46, label %._crit_edge62, label %.preheader, !llvm.loop !143

._crit_edge62:                                    ; preds = %.preheader, %70
  call void @free(ptr noundef %30) #20
  call void @free(ptr noundef %29) #20
  call void @llvm.lifetime.end.p0(i64 24, ptr nonnull %4) #20
  call void @llvm.lifetime.end.p0(i64 16, ptr nonnull %3) #20
  call void @llvm.lifetime.end.p0(i64 96, ptr nonnull %2) #20
  ret void
}